; Function Attrs: mustprogress uwtable
define void @_ZN6duckdb24InterruptDoneSignalState5AwaitEv(ptr noundef nonnull align 8 dereferenceable(89) %0) local_unnamed_addr #0 align 2 personality ptr @__gxx_personality_v0 {
  %2 = alloca %"class.std::unique_lock", align 8
  call void @llvm.lifetime.start.p0(i64 16, ptr nonnull %2) #35
  store ptr %0, ptr %2, align 8, !tbaa !687
  %3 = getelementptr inbounds nuw i8, ptr %2, i64 8
  %4 = tail call noundef i32 @pthread_mutex_lock(ptr noundef nonnull align 8 dereferenceable(40) %0) #35
  %.not.i.i.i = icmp eq i32 %4, 0
  br i1 %.not.i.i.i, label %_ZNSt11unique_lockISt5mutexEC2ERS0_.exit, label %5

5:                                                ; preds = %1
  tail call void @_ZSt20__throw_system_errori(i32 noundef %4) #36
  unreachable

_ZNSt11unique_lockISt5mutexEC2ERS0_.exit:         ; preds = %1
  store i8 1, ptr %3, align 8, !tbaa !690
  %6 = getelementptr inbounds nuw i8, ptr %0, i64 40
  %7 = getelementptr inbounds nuw i8, ptr %0, i64 88
  %.val.val2.i = load i8, ptr %7, align 8, !tbaa !682, !range !156, !noundef !157
  %8 = trunc nuw i8 %.val.val2.i to i1
  br i1 %8, label %"_ZNSt18condition_variable4waitIZN6duckdb24InterruptDoneSignalState5AwaitEvE3$_0EEvRSt11unique_lockISt5mutexET_.exit.thread", label %.lr.ph.i

"_ZNSt18condition_variable4waitIZN6duckdb24InterruptDoneSignalState5AwaitEvE3$_0EEvRSt11unique_lockISt5mutexET_.exit.thread": ; preds = %_ZNSt11unique_lockISt5mutexEC2ERS0_.exit
  store i8 0, ptr %7, align 8, !tbaa !682
  br label %11

.lr.ph.i:                                         ; preds = %_ZNSt11unique_lockISt5mutexEC2ERS0_.exit, %.noexc
  invoke void @_ZNSt18condition_variable4waitERSt11unique_lockISt5mutexE(ptr noundef nonnull align 8 dereferenceable(48) %6, ptr noundef nonnull align 8 dereferenceable(9) %2)
          to label %.noexc unwind label %15

.noexc:                                           ; preds = %.lr.ph.i
  %.val.val.i = load i8, ptr %7, align 8, !tbaa !682, !range !156, !noundef !157
  %9 = trunc nuw i8 %.val.val.i to i1
  br i1 %9, label %"_ZNSt18condition_variable4waitIZN6duckdb24InterruptDoneSignalState5AwaitEvE3$_0EEvRSt11unique_lockISt5mutexET_.exit", label %.lr.ph.i, !llvm.loop !691

"_ZNSt18condition_variable4waitIZN6duckdb24InterruptDoneSignalState5AwaitEvE3$_0EEvRSt11unique_lockISt5mutexET_.exit": ; preds = %.noexc
  %.pre = load i8, ptr %3, align 8, !tbaa !690, !range !156
  %10 = trunc nuw i8 %.pre to i1
  store i8 0, ptr %7, align 8, !tbaa !682
  br i1 %10, label %11, label %_ZNSt11unique_lockISt5mutexED2Ev.exit

11:                                               ; preds = %"_ZNSt18condition_variable4waitIZN6duckdb24InterruptDoneSignalState5AwaitEvE3$_0EEvRSt11unique_lockISt5mutexET_.exit.thread", %"_ZNSt18condition_variable4waitIZN6duckdb24InterruptDoneSignalState5AwaitEvE3$_0EEvRSt11unique_lockISt5mutexET_.exit"
  %12 = load ptr, ptr %2, align 8, !tbaa !687
  %.not.i.i = icmp eq ptr %12, null
  br i1 %.not.i.i, label %_ZNSt11unique_lockISt5mutexED2Ev.exit, label %13

13:                                               ; preds = %11
  %14 = call noundef i32 @pthread_mutex_unlock(ptr noundef nonnull align 8 dereferenceable(40) %12) #35
  br label %_ZNSt11unique_lockISt5mutexED2Ev.exit

_ZNSt11unique_lockISt5mutexED2Ev.exit:            ; preds = %"_ZNSt18condition_variable4waitIZN6duckdb24InterruptDoneSignalState5AwaitEvE3$_0EEvRSt11unique_lockISt5mutexET_.exit", %11, %13
  call void @llvm.lifetime.end.p0(i64 16, ptr nonnull %2) #35
  ret void

15:                                               ; preds = %.lr.ph.i
  %16 = landingpad { ptr, i32 }
          cleanup
  %17 = load i8, ptr %3, align 8, !tbaa !690, !range !156, !noundef !157
  %18 = trunc nuw i8 %17 to i1
  br i1 %18, label %19, label %_ZNSt11unique_lockISt5mutexED2Ev.exit3

19:                                               ; preds = %15
  %20 = load ptr, ptr %2, align 8, !tbaa !687
  %.not.i.i2 = icmp eq ptr %20, null
  br i1 %.not.i.i2, label %_ZNSt11unique_lockISt5mutexED2Ev.exit3, label %21

21:                                               ; preds = %19
  %22 = call noundef i32 @pthread_mutex_unlock(ptr noundef nonnull align 8 dereferenceable(40) %20) #35
  br label %_ZNSt11unique_lockISt5mutexED2Ev.exit3

_ZNSt11unique_lockISt5mutexED2Ev.exit3:           ; preds = %15, %19, %21
  call void @llvm.lifetime.end.p0(i64 16, ptr nonnull %2) #35
  resume { ptr, i32 } %16
}